; Function Attrs: mustprogress nounwind uwtable
define dso_local void @_ZN25cmGeneratedFileStreamBaseC2Ev(ptr noundef nonnull align 8 dereferenceable(100) %0) unnamed_addr #4 align 2 {
  tail call void @_ZNSt7__cxx1112basic_stringIcSt11char_traitsIcESaIcEEC1Ev(ptr noundef nonnull align 8 dereferenceable(32) %0) #15
  %2 = getelementptr inbounds i8, ptr %0, i64 32
  tail call void @_ZNSt7__cxx1112basic_stringIcSt11char_traitsIcESaIcEEC1Ev(ptr noundef nonnull align 8 dereferenceable(32) %2) #15
  %3 = getelementptr inbounds i8, ptr %0, i64 64
  tail call void @_ZNSt7__cxx1112basic_stringIcSt11char_traitsIcESaIcEEC1Ev(ptr noundef nonnull align 8 dereferenceable(32) %3) #15
  %4 = getelementptr inbounds i8, ptr %0, i64 96
  store <4 x i8> <i8 0, i8 0, i8 0, i8 1>, ptr %4, align 8
  ret void
}